target datalayout = "e-m:e-p270:32:32-p271:32:32-p272:64:64-i64:64-i128:128-f80:128-n8:16:32:64-S128"
target triple = "x86_64-pc-linux-gnu"

%union.pthread_mutex_t = type { %struct.__pthread_mutex_s }
%struct.__pthread_mutex_s = type { i32, i32, i32, i32, i32, i16, i16, %struct.__pthread_internal_list }
%struct.__pthread_internal_list = type { ptr, ptr }
%struct._crawler_module_t = type { ptr, %struct.crawler_client_t, ptr, i32 }
%struct.crawler_client_t = type { ptr, i32, i32, i32, ptr }
%struct.crawler_expired_data = type { %union.pthread_mutex_t, [256 x %struct.crawlerstats_t], i32, i32, i8, i8 }
%struct.crawlerstats_t = type { [61 x i64], i64, i64, i64, i64, i32, i32, i8 }

@current_time = external global i32, align 4

; Function Attrs: nounwind uwtable
define internal void @crawler_expired_finalize(ptr noundef %0) #0 {
  %2 = alloca ptr, align 8
  %3 = alloca ptr, align 8
  store ptr %0, ptr %2, align 8, !tbaa !4
  call void @llvm.lifetime.start.p0(i64 8, ptr %3) #11
  %4 = load ptr, ptr %2, align 8, !tbaa !4
  %5 = getelementptr inbounds nuw %struct._crawler_module_t, ptr %4, i32 0, i32 0
  %6 = load ptr, ptr %5, align 8, !tbaa !16
  store ptr %6, ptr %3, align 8, !tbaa !10
  %7 = load ptr, ptr %3, align 8, !tbaa !10
  %8 = getelementptr inbounds nuw %struct.crawler_expired_data, ptr %7, i32 0, i32 0
  %9 = call i32 @pthread_mutex_lock(ptr noundef %8) #11
  %10 = load volatile i32, ptr @current_time, align 4, !tbaa !20
  %11 = load ptr, ptr %3, align 8, !tbaa !10
  %12 = getelementptr inbounds nuw %struct.crawler_expired_data, ptr %11, i32 0, i32 3
  store i32 %10, ptr %12, align 4, !tbaa !53
  %13 = load ptr, ptr %3, align 8, !tbaa !10
  %14 = getelementptr inbounds nuw %struct.crawler_expired_data, ptr %13, i32 0, i32 4
  store i8 1, ptr %14, align 8, !tbaa !54
  %15 = load ptr, ptr %3, align 8, !tbaa !10
  %16 = getelementptr inbounds nuw %struct.crawler_expired_data, ptr %15, i32 0, i32 0
  %17 = call i32 @pthread_mutex_unlock(ptr noundef %16) #11
  %18 = load ptr, ptr %3, align 8, !tbaa !10
  %19 = getelementptr inbounds nuw %struct.crawler_expired_data, ptr %18, i32 0, i32 5
  %20 = load i8, ptr %19, align 1, !tbaa !12, !range !33, !noundef !34
  %21 = trunc i8 %20 to i1
  br i1 %21, label %24, label %22

22:                                               ; preds = %1
  %23 = load ptr, ptr %3, align 8, !tbaa !10
  call void @free(ptr noundef %23) #11
  br label %24

24:                                               ; preds = %22, %1
  call void @llvm.lifetime.end.p0(i64 8, ptr %3) #11
  ret void
}