; Function Attrs: nounwind uwtable
define internal void @crawler_expired_finalize(ptr noundef readonly captures(none) %0) #0 {
  %2 = load ptr, ptr %0, align 8, !tbaa !12
  %3 = tail call i32 @pthread_mutex_lock(ptr noundef %2) #18
  %4 = load volatile i32, ptr @current_time, align 4, !tbaa !10
  %5 = getelementptr inbounds nuw i8, ptr %2, i64 137260
  store i32 %4, ptr %5, align 4, !tbaa !44
  %6 = getelementptr inbounds nuw i8, ptr %2, i64 137264
  store i8 1, ptr %6, align 8, !tbaa !45
  %7 = tail call i32 @pthread_mutex_unlock(ptr noundef %2) #18
  %8 = getelementptr inbounds nuw i8, ptr %2, i64 137265
  %9 = load i8, ptr %8, align 1, !tbaa !4, !range !46, !noundef !47
  %10 = trunc nuw i8 %9 to i1
  br i1 %10, label %12, label %11

11:                                               ; preds = %1
  tail call void @free(ptr noundef nonnull %2) #18
  br label %12

12:                                               ; preds = %11, %1
  ret void
}